target datalayout = "e-m:e-p270:32:32-p271:32:32-p272:64:64-i64:64-i128:128-f80:128-n8:16:32:64-S128"
target triple = "x86_64-pc-linux-gnu"

; Function Attrs: nounwind uwtable
define dso_local i32 @Curl_dynhds_h1_cadd_line(ptr noundef %0, ptr noundef %1) #0 {
  %3 = alloca ptr, align 8
  %4 = alloca ptr, align 8
  store ptr %0, ptr %3, align 8, !tbaa !4
  store ptr %1, ptr %4, align 8, !tbaa !28
  %5 = load ptr, ptr %3, align 8, !tbaa !4
  %6 = load ptr, ptr %4, align 8, !tbaa !28
  %7 = load ptr, ptr %4, align 8, !tbaa !28
  %8 = icmp ne ptr %7, null
  br i1 %8, label %9, label %12

9:                                                ; preds = %2
  %10 = load ptr, ptr %4, align 8, !tbaa !28
  %11 = call i64 @strlen(ptr noundef %10) #6
  br label %13

12:                                               ; preds = %2
  br label %13

13:                                               ; preds = %12, %9
  %14 = phi i64 [ %11, %9 ], [ 0, %12 ]
  %15 = call i32 @Curl_dynhds_h1_add_line(ptr noundef %5, ptr noundef %6, i64 noundef %14)
  ret i32 %15
}